; Function Attrs: cold nounwind optsize uwtable
define i32 @ff_rv34_decode_end(ptr noundef %0) local_unnamed_addr #2 {
  %2 = getelementptr inbounds nuw i8, ptr %0, i64 32
  %3 = load ptr, ptr %2, align 8, !tbaa !18
  %4 = getelementptr inbounds nuw i8, ptr %3, i64 5992
  tail call void @av_freep(ptr noundef nonnull %4) #15
  %5 = getelementptr inbounds nuw i8, ptr %3, i64 6000
  store ptr null, ptr %5, align 8, !tbaa !75
  %6 = getelementptr inbounds nuw i8, ptr %3, i64 6768
  tail call void @av_freep(ptr noundef nonnull %6) #15
  %7 = getelementptr inbounds nuw i8, ptr %3, i64 6544
  tail call void @av_freep(ptr noundef nonnull %7) #15
  %8 = getelementptr inbounds nuw i8, ptr %3, i64 6648
  tail call void @av_freep(ptr noundef nonnull %8) #15
  %9 = getelementptr inbounds nuw i8, ptr %3, i64 6656
  tail call void @av_freep(ptr noundef nonnull %9) #15
  %10 = getelementptr inbounds nuw i8, ptr %3, i64 6664
  tail call void @av_freep(ptr noundef nonnull %10) #15
  %11 = tail call i32 @ff_mpv_decode_close(ptr noundef %0) #15
  ret i32 %11
}